target datalayout = "e-m:e-p270:32:32-p271:32:32-p272:64:64-i64:64-i128:128-f80:128-n8:16:32:64-S128"
target triple = "x86_64-pc-linux-gnu"

@.str.33 = private unnamed_addr constant [4 x i8] c"yes\00", align 1
@.str.34 = private unnamed_addr constant [3 x i8] c"no\00", align 1
@stdout = external global ptr, align 8
@.str.40 = private unnamed_addr constant [27 x i8] c"Library is not available.\0A\00", align 1
@.str.47 = private unnamed_addr constant [58 x i8] c"\09-a      : toggles writing min-area gates [default = %s]\0A\00", align 1
@.str.49 = private unnamed_addr constant [62 x i8] c"\09-v      : toggles enabling of verbose output [default = %s]\0A\00", align 1
@.str.50 = private unnamed_addr constant [36 x i8] c"\09-h      : print the command usage\0A\00", align 1
@.str.52 = private unnamed_addr constant [5 x i8] c"savh\00", align 1
@.str.53 = private unnamed_addr constant [30 x i8] c"\0Ausage: print_genlib [-savh]\0A\00", align 1
@.str.54 = private unnamed_addr constant [45 x i8] c"\09          print the current genlib library\0A\00", align 1
@.str.55 = private unnamed_addr constant [54 x i8] c"\09-s      : toggles writing short form [default = %s]\0A\00", align 1

; Function Attrs: nounwind uwtable
define internal i32 @Mio_CommandPrintGenlib(ptr noundef %0, i32 noundef %1, ptr noundef %2) #0 {
  %4 = alloca i32, align 4
  %5 = alloca ptr, align 8
  %6 = alloca i32, align 4
  %7 = alloca ptr, align 8
  %8 = alloca ptr, align 8
  %9 = alloca ptr, align 8
  %10 = alloca i32, align 4
  %11 = alloca i32, align 4
  %12 = alloca i32, align 4
  %13 = alloca i32, align 4
  store ptr %0, ptr %5, align 8
  store i32 %1, ptr %6, align 4
  store ptr %2, ptr %7, align 8
  store i32 0, ptr %10, align 4
  store i32 0, ptr %11, align 4
  store i32 0, ptr %12, align 4
  %14 = load ptr, ptr %5, align 8
  %15 = call ptr @Abc_FrameReadOut(ptr noundef %14)
  store ptr %15, ptr %8, align 8
  %16 = load ptr, ptr %5, align 8
  %17 = call ptr @Abc_FrameReadErr(ptr noundef %16)
  store ptr %17, ptr %9, align 8
  call void (...) @Extra_UtilGetoptReset()
  br label %18

18:                                               ; preds = %36, %3
  %19 = load i32, ptr %6, align 4
  %20 = load ptr, ptr %7, align 8
  %21 = call i32 @Extra_UtilGetopt(i32 noundef %19, ptr noundef %20, ptr noundef @.str.52)
  store i32 %21, ptr %13, align 4
  %22 = icmp ne i32 %21, -1
  br i1 %22, label %23, label %37

23:                                               ; preds = %18
  %24 = load i32, ptr %13, align 4
  switch i32 %24, label %35 [
    i32 115, label %25
    i32 97, label %28
    i32 118, label %31
    i32 104, label %34
  ]

25:                                               ; preds = %23
  %26 = load i32, ptr %10, align 4
  %27 = xor i32 %26, 1
  store i32 %27, ptr %10, align 4
  br label %36

28:                                               ; preds = %23
  %29 = load i32, ptr %11, align 4
  %30 = xor i32 %29, 1
  store i32 %30, ptr %11, align 4
  br label %36

31:                                               ; preds = %23
  %32 = load i32, ptr %12, align 4
  %33 = xor i32 %32, 1
  store i32 %33, ptr %12, align 4
  br label %36

34:                                               ; preds = %23
  br label %47

35:                                               ; preds = %23
  br label %47

36:                                               ; preds = %31, %28, %25
  br label %18, !llvm.loop !7

37:                                               ; preds = %18
  %38 = call ptr (...) @Abc_FrameReadLibGen()
  %39 = icmp eq ptr %38, null
  br i1 %39, label %40, label %42

40:                                               ; preds = %37
  %41 = call i32 (ptr, ...) @printf(ptr noundef @.str.40)
  store i32 1, ptr %4, align 4
  br label %69

42:                                               ; preds = %37
  %43 = load ptr, ptr @stdout, align 8
  %44 = call ptr (...) @Abc_FrameReadLibGen()
  %45 = load i32, ptr %10, align 4
  %46 = load i32, ptr %11, align 4
  call void @Mio_WriteLibrary(ptr noundef %43, ptr noundef %44, i32 noundef 0, i32 noundef %45, i32 noundef %46)
  store i32 0, ptr %4, align 4
  br label %69

47:                                               ; preds = %35, %34
  %48 = load ptr, ptr %9, align 8
  %49 = call i32 (ptr, ptr, ...) @fprintf(ptr noundef %48, ptr noundef @.str.53) #6
  %50 = load ptr, ptr %9, align 8
  %51 = call i32 (ptr, ptr, ...) @fprintf(ptr noundef %50, ptr noundef @.str.54) #6
  %52 = load ptr, ptr %9, align 8
  %53 = load i32, ptr %10, align 4
  %54 = icmp ne i32 %53, 0
  %55 = select i1 %54, ptr @.str.33, ptr @.str.34
  %56 = call i32 (ptr, ptr, ...) @fprintf(ptr noundef %52, ptr noundef @.str.55, ptr noundef %55) #6
  %57 = load ptr, ptr %9, align 8
  %58 = load i32, ptr %11, align 4
  %59 = icmp ne i32 %58, 0
  %60 = select i1 %59, ptr @.str.33, ptr @.str.34
  %61 = call i32 (ptr, ptr, ...) @fprintf(ptr noundef %57, ptr noundef @.str.47, ptr noundef %60) #6
  %62 = load ptr, ptr %9, align 8
  %63 = load i32, ptr %12, align 4
  %64 = icmp ne i32 %63, 0
  %65 = select i1 %64, ptr @.str.33, ptr @.str.34
  %66 = call i32 (ptr, ptr, ...) @fprintf(ptr noundef %62, ptr noundef @.str.49, ptr noundef %65) #6
  %67 = load ptr, ptr %9, align 8
  %68 = call i32 (ptr, ptr, ...) @fprintf(ptr noundef %67, ptr noundef @.str.50) #6
  store i32 1, ptr %4, align 4
  br label %69

69:                                               ; preds = %47, %42, %40
  %70 = load i32, ptr %4, align 4
  ret i32 %70
}