; Function Attrs: nounwind uwtable
define internal range(i32 0, 2) i32 @Mio_CommandPrintGenlib(ptr noundef %0, i32 noundef %1, ptr noundef %2) #0 {
  %4 = tail call ptr @Abc_FrameReadOut(ptr noundef %0) #8
  %5 = tail call ptr @Abc_FrameReadErr(ptr noundef %0) #8
  tail call void (...) @Extra_UtilGetoptReset() #8
  br label %.outer

.outer:                                           ; preds = %8, %3
  %.022.ph = phi i32 [ %9, %8 ], [ 0, %3 ]
  %.020.ph = phi i32 [ %.020.ph41, %8 ], [ 0, %3 ]
  %.019.ph = phi i32 [ %.019, %8 ], [ 0, %3 ]
  br label %.outer40

.outer40:                                         ; preds = %.outer, %10
  %.020.ph41 = phi i32 [ %.020.ph, %.outer ], [ %11, %10 ]
  %.019.ph42 = phi i32 [ %.019.ph, %.outer ], [ %.019, %10 ]
  br label %6

6:                                                ; preds = %.outer40, %12
  %.019 = phi i32 [ %13, %12 ], [ %.019.ph42, %.outer40 ]
  %7 = tail call i32 @Extra_UtilGetopt(i32 noundef %1, ptr noundef %2, ptr noundef nonnull @.str.52) #8
  switch i32 %7, label %21 [
    i32 -1, label %14
    i32 115, label %8
    i32 97, label %10
    i32 118, label %12
  ]

8:                                                ; preds = %6
  %9 = xor i32 %.022.ph, 1
  br label %.outer, !llvm.loop !7

10:                                               ; preds = %6
  %11 = xor i32 %.020.ph41, 1
  br label %.outer40, !llvm.loop !7

12:                                               ; preds = %6
  %13 = xor i32 %.019, 1
  br label %6, !llvm.loop !7

14:                                               ; preds = %6
  %15 = tail call ptr (...) @Abc_FrameReadLibGen() #8
  %16 = icmp eq ptr %15, null
  br i1 %16, label %17, label %18

17:                                               ; preds = %14
  %puts = tail call i32 @puts(ptr nonnull dereferenceable(1) @str.5)
  br label %31

18:                                               ; preds = %14
  %19 = load ptr, ptr @stdout, align 8
  %20 = tail call ptr (...) @Abc_FrameReadLibGen() #8
  tail call void @Mio_WriteLibrary(ptr noundef %19, ptr noundef %20, i32 noundef 0, i32 noundef %.022.ph, i32 noundef %.020.ph41) #8
  br label %31

21:                                               ; preds = %6
  %22 = tail call i64 @fwrite(ptr nonnull @.str.53, i64 29, i64 1, ptr %5)
  %23 = tail call i64 @fwrite(ptr nonnull @.str.54, i64 44, i64 1, ptr %5)
  %.not25 = icmp eq i32 %.022.ph, 0
  %24 = select i1 %.not25, ptr @.str.34, ptr @.str.33
  %25 = tail call i32 (ptr, ptr, ...) @fprintf(ptr noundef %5, ptr noundef nonnull @.str.55, ptr noundef nonnull %24) #8
  %.not26 = icmp eq i32 %.020.ph41, 0
  %26 = select i1 %.not26, ptr @.str.34, ptr @.str.33
  %27 = tail call i32 (ptr, ptr, ...) @fprintf(ptr noundef %5, ptr noundef nonnull @.str.47, ptr noundef nonnull %26) #8
  %.not27 = icmp eq i32 %.019, 0
  %28 = select i1 %.not27, ptr @.str.34, ptr @.str.33
  %29 = tail call i32 (ptr, ptr, ...) @fprintf(ptr noundef %5, ptr noundef nonnull @.str.49, ptr noundef nonnull %28) #8
  %30 = tail call i64 @fwrite(ptr nonnull @.str.50, i64 35, i64 1, ptr %5)
  br label %31

31:                                               ; preds = %21, %18, %17
  %.0 = phi i32 [ 1, %21 ], [ 1, %17 ], [ 0, %18 ]
  ret i32 %.0
}